; Function Attrs: nounwind uwtable
define dso_local ptr @Py_GenericAlias(ptr noundef %0, ptr noundef %1) local_unnamed_addr #0 {
  %3 = tail call ptr @PyType_GenericAlloc(ptr noundef nonnull @Py_GenericAliasType, i64 noundef 0) #5
  %4 = icmp eq ptr %3, null
  br i1 %4, label %Py_DECREF.exit, label %5

5:                                                ; preds = %2
  %6 = getelementptr i8, ptr %1, i64 8
  %.val.i = load ptr, ptr %6, align 8, !tbaa !14
  %7 = getelementptr i8, ptr %.val.i, i64 168
  %.val16.i = load i64, ptr %7, align 8, !tbaa !15
  %8 = and i64 %.val16.i, 67108864
  %.not.i8 = icmp eq i64 %8, 0
  br i1 %.not.i8, label %9, label %12

9:                                                ; preds = %5
  %10 = tail call ptr (i64, ...) @PyTuple_Pack(i64 noundef 1, ptr noundef nonnull %1) #5
  %11 = icmp eq ptr %10, null
  br i1 %11, label %26, label %Py_INCREF.exit.i

12:                                               ; preds = %5
  %13 = load i32, ptr %1, align 8, !tbaa !23
  %14 = icmp slt i32 %13, 0
  br i1 %14, label %Py_INCREF.exit.i, label %15

15:                                               ; preds = %12
  %16 = add nuw i32 %13, 1
  store i32 %16, ptr %1, align 8, !tbaa !23
  br label %Py_INCREF.exit.i

Py_INCREF.exit.i:                                 ; preds = %15, %12, %9
  %.0.i = phi ptr [ %10, %9 ], [ %1, %12 ], [ %1, %15 ]
  %17 = load i32, ptr %0, align 8, !tbaa !23
  %18 = icmp slt i32 %17, 0
  br i1 %18, label %setup_ga.exit, label %19

19:                                               ; preds = %Py_INCREF.exit.i
  %20 = add nuw i32 %17, 1
  store i32 %20, ptr %0, align 8, !tbaa !23
  br label %setup_ga.exit

setup_ga.exit:                                    ; preds = %Py_INCREF.exit.i, %19
  %21 = getelementptr inbounds nuw i8, ptr %3, i64 16
  store ptr %0, ptr %21, align 8, !tbaa !33
  %22 = getelementptr inbounds nuw i8, ptr %3, i64 24
  store ptr %.0.i, ptr %22, align 8, !tbaa !34
  %23 = getelementptr inbounds nuw i8, ptr %3, i64 32
  tail call void @llvm.memset.p0.i64(ptr noundef nonnull align 8 dereferenceable(16) %23, i8 0, i64 16, i1 false)
  %24 = tail call ptr @PyVectorcall_Function(ptr noundef nonnull %0) #5
  %.not15.i = icmp eq ptr %24, null
  %25 = getelementptr inbounds nuw i8, ptr %3, i64 56
  %.ga_vectorcall.i = select i1 %.not15.i, ptr null, ptr @ga_vectorcall
  store ptr %.ga_vectorcall.i, ptr %25, align 8, !tbaa !56
  br label %Py_DECREF.exit

26:                                               ; preds = %9
  %27 = load i32, ptr %3, align 8, !tbaa !23
  %.not.i = icmp sgt i32 %27, -1
  br i1 %.not.i, label %28, label %Py_DECREF.exit

28:                                               ; preds = %26
  %29 = add nsw i32 %27, -1
  store i32 %29, ptr %3, align 8, !tbaa !23
  %30 = icmp eq i32 %29, 0
  br i1 %30, label %31, label %Py_DECREF.exit

31:                                               ; preds = %28
  tail call void @_Py_Dealloc(ptr noundef nonnull %3) #5
  br label %Py_DECREF.exit

Py_DECREF.exit:                                   ; preds = %31, %28, %26, %setup_ga.exit, %2
  %.0 = phi ptr [ null, %2 ], [ %3, %setup_ga.exit ], [ null, %26 ], [ null, %28 ], [ null, %31 ]
  ret ptr %.0
}